target datalayout = "e-m:e-p270:32:32-p271:32:32-p272:64:64-i64:64-i128:128-f80:128-n8:16:32:64-S128"
target triple = "x86_64-pc-linux-gnu"

%struct.rb_data_type_struct = type { ptr, %struct.anon.2, ptr, ptr, i64 }
%struct.anon.2 = type { ptr, ptr, ptr, ptr, [1 x ptr] }
%struct.zstream_funcs = type { ptr, ptr, ptr }
%struct.zstream = type { i64, i64, i64, i64, %struct.z_stream_s, ptr }
%struct.z_stream_s = type { ptr, i32, i64, ptr, i32, i64, ptr, ptr, ptr, ptr, ptr, i32, i64, i64 }
%struct.gzfile = type { %struct.zstream, i64, i32, i32, i64, i64, i64, i64, i32, i32, i64, ptr, ptr, ptr, ptr, i64, i64 }
%struct.RString = type { %struct.RBasic, i64, %union.anon }
%struct.RBasic = type { i64, i64 }
%union.anon = type { %struct.anon }
%struct.anon = type { ptr, %union.anon.0 }
%union.anon.0 = type { i64 }
%struct.OnigEncodingTypeST = type { ptr, ptr, i32, i32, ptr, ptr, ptr, ptr, ptr, ptr, ptr, ptr, ptr, ptr, ptr, ptr, ptr, i32, i32 }

@id_seek = internal global i64 0, align 8
@cGzError = internal global i64 0, align 8
@gzfile_data_type = internal constant %struct.rb_data_type_struct { ptr @.str.163, %struct.anon.2 { ptr @gzfile_mark, ptr @gzfile_free, ptr @gzfile_memsize, ptr null, [1 x ptr] zeroinitializer }, ptr null, ptr null, i64 1 }, align 8
@.str.165 = private unnamed_addr constant [19 x i8] c"closed gzip stream\00", align 1

; Function Attrs: inlinehint nounwind sspstrong willreturn memory(read) uwtable
define internal i64 @RBASIC_CLASS(i64 noundef %0) #6 {
  %2 = alloca i64, align 8
  store i64 %0, ptr %2, align 8, !tbaa !6
  %3 = load i64, ptr %2, align 8, !tbaa !6
  %4 = inttoptr i64 %3 to ptr
  %5 = getelementptr inbounds nuw %struct.RBasic, ptr %4, i32 0, i32 1
  %6 = load i64, ptr %5, align 8, !tbaa !98
  ret i64 %6
}

; Function Attrs: nounwind sspstrong uwtable
define internal void @zstream_reset_input(ptr noundef %0) #0 {
  %2 = alloca ptr, align 8
  store ptr %0, ptr %2, align 8, !tbaa !21
  %3 = load ptr, ptr %2, align 8, !tbaa !21
  %4 = getelementptr inbounds nuw %struct.zstream, ptr %3, i32 0, i32 2
  %5 = load i64, ptr %4, align 8, !tbaa !28
  %6 = call zeroext i1 @RB_NIL_P(i64 noundef %5) #24
  br i1 %6, label %18, label %7

7:                                                ; preds = %1
  %8 = load ptr, ptr %2, align 8, !tbaa !21
  %9 = getelementptr inbounds nuw %struct.zstream, ptr %8, i32 0, i32 2
  %10 = load i64, ptr %9, align 8, !tbaa !28
  %11 = call i64 @RBASIC_CLASS(i64 noundef %10) #25
  %12 = icmp eq i64 %11, 0
  br i1 %12, label %13, label %18

13:                                               ; preds = %7
  %14 = load ptr, ptr %2, align 8, !tbaa !21
  %15 = getelementptr inbounds nuw %struct.zstream, ptr %14, i32 0, i32 2
  %16 = load i64, ptr %15, align 8, !tbaa !28
  %17 = call i64 @rb_str_resize(i64 noundef %16, i64 noundef 0)
  br label %21

18:                                               ; preds = %7, %1
  %19 = load ptr, ptr %2, align 8, !tbaa !21
  %20 = getelementptr inbounds nuw %struct.zstream, ptr %19, i32 0, i32 2
  store i64 4, ptr %20, align 8, !tbaa !28
  br label %21

21:                                               ; preds = %18, %13
  ret void
}

; Function Attrs: nounwind sspstrong uwtable
define internal void @zstream_reset(ptr noundef %0) #0 {
  %2 = alloca ptr, align 8
  %3 = alloca i32, align 4
  store ptr %0, ptr %2, align 8, !tbaa !21
  call void @llvm.lifetime.start.p0(i64 4, ptr %3) #23
  %4 = load ptr, ptr %2, align 8, !tbaa !21
  %5 = getelementptr inbounds nuw %struct.zstream, ptr %4, i32 0, i32 5
  %6 = load ptr, ptr %5, align 8, !tbaa !93
  %7 = getelementptr inbounds nuw %struct.zstream_funcs, ptr %6, i32 0, i32 0
  %8 = load ptr, ptr %7, align 8, !tbaa !97
  %9 = load ptr, ptr %2, align 8, !tbaa !21
  %10 = getelementptr inbounds nuw %struct.zstream, ptr %9, i32 0, i32 4
  %11 = call i32 %8(ptr noundef %10)
  store i32 %11, ptr %3, align 4, !tbaa !10
  %12 = load i32, ptr %3, align 4, !tbaa !10
  %13 = icmp ne i32 %12, 0
  br i1 %13, label %14, label %20

14:                                               ; preds = %1
  %15 = load i32, ptr %3, align 4, !tbaa !10
  %16 = load ptr, ptr %2, align 8, !tbaa !21
  %17 = getelementptr inbounds nuw %struct.zstream, ptr %16, i32 0, i32 4
  %18 = getelementptr inbounds nuw %struct.z_stream_s, ptr %17, i32 0, i32 6
  %19 = load ptr, ptr %18, align 8, !tbaa !34
  call void @raise_zlib_error(i32 noundef %15, ptr noundef %19) #26
  unreachable

20:                                               ; preds = %1
  %21 = load ptr, ptr %2, align 8, !tbaa !21
  %22 = getelementptr inbounds nuw %struct.zstream, ptr %21, i32 0, i32 0
  store i64 1, ptr %22, align 8, !tbaa !33
  %23 = load ptr, ptr %2, align 8, !tbaa !21
  %24 = getelementptr inbounds nuw %struct.zstream, ptr %23, i32 0, i32 1
  store i64 4, ptr %24, align 8, !tbaa !35
  %25 = load ptr, ptr %2, align 8, !tbaa !21
  %26 = getelementptr inbounds nuw %struct.zstream, ptr %25, i32 0, i32 4
  %27 = getelementptr inbounds nuw %struct.z_stream_s, ptr %26, i32 0, i32 3
  store ptr null, ptr %27, align 8, !tbaa !96
  %28 = load ptr, ptr %2, align 8, !tbaa !21
  %29 = getelementptr inbounds nuw %struct.zstream, ptr %28, i32 0, i32 4
  %30 = getelementptr inbounds nuw %struct.z_stream_s, ptr %29, i32 0, i32 4
  store i32 0, ptr %30, align 8, !tbaa !23
  %31 = load ptr, ptr %2, align 8, !tbaa !21
  call void @zstream_reset_input(ptr noundef %31)
  call void @llvm.lifetime.end.p0(i64 4, ptr %3) #23
  ret void
}

; Function Attrs: nounwind sspstrong uwtable
define internal void @gzfile_reset(ptr noundef %0) #0 {
  %2 = alloca ptr, align 8
  store ptr %0, ptr %2, align 8, !tbaa !57
  %3 = load ptr, ptr %2, align 8, !tbaa !57
  %4 = getelementptr inbounds nuw %struct.gzfile, ptr %3, i32 0, i32 0
  call void @zstream_reset(ptr noundef %4)
  %5 = load ptr, ptr %2, align 8, !tbaa !57
  %6 = getelementptr inbounds nuw %struct.gzfile, ptr %5, i32 0, i32 0
  %7 = getelementptr inbounds nuw %struct.zstream, ptr %6, i32 0, i32 0
  %8 = load i64, ptr %7, align 8, !tbaa !59
  %9 = or i64 %8, 16
  store i64 %9, ptr %7, align 8, !tbaa !59
  %10 = call i64 @crc32_z(i64 noundef 0, ptr noundef null, i64 noundef 0)
  %11 = load ptr, ptr %2, align 8, !tbaa !57
  %12 = getelementptr inbounds nuw %struct.gzfile, ptr %11, i32 0, i32 7
  store i64 %10, ptr %12, align 8, !tbaa !50
  %13 = load ptr, ptr %2, align 8, !tbaa !57
  %14 = getelementptr inbounds nuw %struct.gzfile, ptr %13, i32 0, i32 9
  store i32 0, ptr %14, align 4, !tbaa !56
  %15 = load ptr, ptr %2, align 8, !tbaa !57
  %16 = getelementptr inbounds nuw %struct.gzfile, ptr %15, i32 0, i32 10
  store i64 0, ptr %16, align 8, !tbaa !139
  %17 = load ptr, ptr %2, align 8, !tbaa !57
  %18 = getelementptr inbounds nuw %struct.gzfile, ptr %17, i32 0, i32 14
  %19 = load ptr, ptr %18, align 8, !tbaa !140
  %20 = icmp ne ptr %19, null
  br i1 %20, label %21, label %44

21:                                               ; preds = %1
  %22 = load ptr, ptr %2, align 8, !tbaa !57
  %23 = getelementptr inbounds nuw %struct.gzfile, ptr %22, i32 0, i32 14
  %24 = load ptr, ptr %23, align 8, !tbaa !140
  call void @rb_econv_close(ptr noundef %24)
  %25 = load ptr, ptr %2, align 8, !tbaa !57
  %26 = getelementptr inbounds nuw %struct.gzfile, ptr %25, i32 0, i32 13
  %27 = load ptr, ptr %26, align 8, !tbaa !65
  %28 = getelementptr inbounds nuw %struct.OnigEncodingTypeST, ptr %27, i32 0, i32 1
  %29 = load ptr, ptr %28, align 8, !tbaa !142
  %30 = load ptr, ptr %2, align 8, !tbaa !57
  %31 = getelementptr inbounds nuw %struct.gzfile, ptr %30, i32 0, i32 12
  %32 = load ptr, ptr %31, align 8, !tbaa !75
  %33 = getelementptr inbounds nuw %struct.OnigEncodingTypeST, ptr %32, i32 0, i32 1
  %34 = load ptr, ptr %33, align 8, !tbaa !142
  %35 = load ptr, ptr %2, align 8, !tbaa !57
  %36 = getelementptr inbounds nuw %struct.gzfile, ptr %35, i32 0, i32 8
  %37 = load i32, ptr %36, align 8, !tbaa !141
  %38 = load ptr, ptr %2, align 8, !tbaa !57
  %39 = getelementptr inbounds nuw %struct.gzfile, ptr %38, i32 0, i32 15
  %40 = load i64, ptr %39, align 8, !tbaa !131
  %41 = call ptr @rb_econv_open_opts(ptr noundef %29, ptr noundef %34, i32 noundef %37, i64 noundef %40)
  %42 = load ptr, ptr %2, align 8, !tbaa !57
  %43 = getelementptr inbounds nuw %struct.gzfile, ptr %42, i32 0, i32 14
  store ptr %41, ptr %43, align 8, !tbaa !140
  br label %44

44:                                               ; preds = %21, %1
  ret void
}

; Function Attrs: inlinehint nounwind sspstrong willreturn memory(read) uwtable
define internal i64 @RSTRING_LEN(i64 noundef %0) #6 {
  %2 = alloca i64, align 8
  store i64 %0, ptr %2, align 8, !tbaa !6
  %3 = load i64, ptr %2, align 8, !tbaa !6
  %4 = inttoptr i64 %3 to ptr
  %5 = getelementptr inbounds nuw %struct.RString, ptr %4, i32 0, i32 1
  %6 = load i64, ptr %5, align 8, !tbaa !88
  ret i64 %6
}

; Function Attrs: inlinehint nounwind sspstrong willreturn memory(none) uwtable
define internal zeroext i1 @RB_NIL_P(i64 noundef %0) #5 {
  %2 = alloca i64, align 8
  store i64 %0, ptr %2, align 8, !tbaa !6
  %3 = load i64, ptr %2, align 8, !tbaa !6
  %4 = icmp eq i64 %3, 4
  ret i1 %4
}

; Function Attrs: nounwind sspstrong uwtable
define internal void @gzfile_reader_rewind(ptr noundef %0) #0 {
  %2 = alloca ptr, align 8
  %3 = alloca i64, align 8
  store ptr %0, ptr %2, align 8, !tbaa !57
  call void @llvm.lifetime.start.p0(i64 8, ptr %3) #23
  %4 = load ptr, ptr %2, align 8, !tbaa !57
  %5 = getelementptr inbounds nuw %struct.gzfile, ptr %4, i32 0, i32 0
  %6 = getelementptr inbounds nuw %struct.zstream, ptr %5, i32 0, i32 4
  %7 = getelementptr inbounds nuw %struct.z_stream_s, ptr %6, i32 0, i32 2
  %8 = load i64, ptr %7, align 8, !tbaa !63
  store i64 %8, ptr %3, align 8, !tbaa !6
  %9 = load ptr, ptr %2, align 8, !tbaa !57
  %10 = getelementptr inbounds nuw %struct.gzfile, ptr %9, i32 0, i32 0
  %11 = getelementptr inbounds nuw %struct.zstream, ptr %10, i32 0, i32 2
  %12 = load i64, ptr %11, align 8, !tbaa !76
  %13 = call zeroext i1 @RB_NIL_P(i64 noundef %12) #24
  br i1 %13, label %22, label %14

14:                                               ; preds = %1
  %15 = load ptr, ptr %2, align 8, !tbaa !57
  %16 = getelementptr inbounds nuw %struct.gzfile, ptr %15, i32 0, i32 0
  %17 = getelementptr inbounds nuw %struct.zstream, ptr %16, i32 0, i32 2
  %18 = load i64, ptr %17, align 8, !tbaa !76
  %19 = call i64 @RSTRING_LEN(i64 noundef %18) #25
  %20 = load i64, ptr %3, align 8, !tbaa !6
  %21 = add nsw i64 %20, %19
  store i64 %21, ptr %3, align 8, !tbaa !6
  br label %22

22:                                               ; preds = %14, %1
  %23 = load ptr, ptr %2, align 8, !tbaa !57
  %24 = getelementptr inbounds nuw %struct.gzfile, ptr %23, i32 0, i32 1
  %25 = load i64, ptr %24, align 8, !tbaa !46
  %26 = load i64, ptr @id_seek, align 8, !tbaa !6
  %27 = load i64, ptr %3, align 8, !tbaa !6
  %28 = sub nsw i64 0, %27
  %29 = call i64 @rb_int2inum(i64 noundef %28)
  %30 = call i64 (i64, i64, i32, ...) @rb_funcall(i64 noundef %25, i64 noundef %26, i32 noundef 2, i64 noundef %29, i64 noundef 3)
  %31 = load ptr, ptr %2, align 8, !tbaa !57
  call void @gzfile_reset(ptr noundef %31)
  call void @llvm.lifetime.end.p0(i64 8, ptr %3) #23
  ret void
}

; Function Attrs: nounwind sspstrong uwtable
define internal ptr @get_gzfile(i64 noundef %0) #0 {
  %2 = alloca i64, align 8
  %3 = alloca ptr, align 8
  store i64 %0, ptr %2, align 8, !tbaa !6
  call void @llvm.lifetime.start.p0(i64 8, ptr %3) #23
  %4 = load i64, ptr %2, align 8, !tbaa !6
  %5 = call ptr @rb_check_typeddata(i64 noundef %4, ptr noundef @gzfile_data_type)
  store ptr %5, ptr %3, align 8, !tbaa !57
  %6 = load ptr, ptr %3, align 8, !tbaa !57
  %7 = getelementptr inbounds nuw %struct.gzfile, ptr %6, i32 0, i32 0
  %8 = getelementptr inbounds nuw %struct.zstream, ptr %7, i32 0, i32 0
  %9 = load i64, ptr %8, align 8, !tbaa !59
  %10 = and i64 %9, 1
  %11 = icmp ne i64 %10, 0
  br i1 %11, label %14, label %12

12:                                               ; preds = %1
  %13 = load i64, ptr @cGzError, align 8, !tbaa !6
  call void (i64, ptr, ...) @rb_raise(i64 noundef %13, ptr noundef @.str.165) #26
  unreachable

14:                                               ; preds = %1
  %15 = load ptr, ptr %3, align 8, !tbaa !57
  call void @llvm.lifetime.end.p0(i64 8, ptr %3) #23
  ret ptr %15
}

; Function Attrs: nounwind sspstrong uwtable
define internal i64 @rb_gzreader_rewind(i64 noundef %0) #0 {
  %2 = alloca i64, align 8
  %3 = alloca ptr, align 8
  store i64 %0, ptr %2, align 8, !tbaa !6
  call void @llvm.lifetime.start.p0(i64 8, ptr %3) #23
  %4 = load i64, ptr %2, align 8, !tbaa !6
  %5 = call ptr @get_gzfile(i64 noundef %4)
  store ptr %5, ptr %3, align 8, !tbaa !57
  %6 = load ptr, ptr %3, align 8, !tbaa !57
  call void @gzfile_reader_rewind(ptr noundef %6)
  call void @llvm.lifetime.end.p0(i64 8, ptr %3) #23
  ret i64 1
}