; Function Attrs: nounwind sspstrong uwtable
define internal noundef i64 @rb_gzreader_rewind(i64 noundef %0) #0 {
  %2 = tail call ptr @rb_check_typeddata(i64 noundef %0, ptr noundef nonnull @gzfile_data_type) #18
  %3 = load i64, ptr %2, align 8, !tbaa !113
  %4 = and i64 %3, 1
  %.not.i = icmp eq i64 %4, 0
  br i1 %.not.i, label %5, label %get_gzfile.exit

5:                                                ; preds = %1
  %6 = load i64, ptr @cGzError, align 8, !tbaa !6
  tail call void (i64, ptr, ...) @rb_raise(i64 noundef %6, ptr noundef nonnull @.str.165) #19
  unreachable

get_gzfile.exit:                                  ; preds = %1
  %7 = getelementptr inbounds nuw i8, ptr %2, i64 48
  %8 = load i64, ptr %7, align 8, !tbaa !135
  %9 = getelementptr inbounds nuw i8, ptr %2, i64 16
  %10 = load i64, ptr %9, align 8, !tbaa !154
  %11 = icmp eq i64 %10, 4
  br i1 %11, label %17, label %12

12:                                               ; preds = %get_gzfile.exit
  %13 = inttoptr i64 %10 to ptr
  %14 = getelementptr inbounds nuw i8, ptr %13, i64 16
  %15 = load i64, ptr %14, align 8, !tbaa !21
  %16 = add nsw i64 %15, %8
  br label %17

17:                                               ; preds = %12, %get_gzfile.exit
  %.0.i = phi i64 [ %8, %get_gzfile.exit ], [ %16, %12 ]
  %18 = getelementptr inbounds nuw i8, ptr %2, i64 152
  %19 = load i64, ptr %18, align 8, !tbaa !117
  %20 = load i64, ptr @id_seek, align 8, !tbaa !6
  %21 = sub nsw i64 0, %.0.i
  %22 = tail call i64 @rb_int2inum(i64 noundef %21) #18
  %23 = tail call i64 (i64, i64, i32, ...) @rb_funcall(i64 noundef %19, i64 noundef %20, i32 noundef 2, i64 noundef %22, i64 noundef 3) #18
  %24 = getelementptr inbounds nuw i8, ptr %2, i64 144
  %25 = load ptr, ptr %24, align 8, !tbaa !56
  %26 = load ptr, ptr %25, align 8, !tbaa !57
  %27 = getelementptr inbounds nuw i8, ptr %2, i64 32
  %28 = tail call i32 %26(ptr noundef nonnull %27) #18
  %.not.i.i.i = icmp eq i32 %28, 0
  br i1 %.not.i.i.i, label %32, label %29

29:                                               ; preds = %17
  %30 = getelementptr inbounds nuw i8, ptr %2, i64 80
  %31 = load ptr, ptr %30, align 8, !tbaa !59
  tail call fastcc void @raise_zlib_error(i32 noundef %28, ptr noundef %31) #20
  unreachable

32:                                               ; preds = %17
  store i64 1, ptr %2, align 8, !tbaa !42
  %33 = getelementptr inbounds nuw i8, ptr %2, i64 8
  store i64 4, ptr %33, align 8, !tbaa !43
  %34 = getelementptr inbounds nuw i8, ptr %2, i64 56
  store ptr null, ptr %34, align 8, !tbaa !47
  %35 = getelementptr inbounds nuw i8, ptr %2, i64 64
  store i32 0, ptr %35, align 8, !tbaa !36
  %36 = load i64, ptr %9, align 8, !tbaa !51
  %37 = icmp eq i64 %36, 4
  br i1 %37, label %46, label %38

38:                                               ; preds = %32
  %39 = inttoptr i64 %36 to ptr
  %40 = getelementptr inbounds nuw i8, ptr %39, i64 8
  %41 = load i64, ptr %40, align 8, !tbaa !60
  %42 = icmp eq i64 %41, 0
  br i1 %42, label %43, label %46

43:                                               ; preds = %38
  %44 = tail call i64 @rb_str_resize(i64 noundef %36, i64 noundef 0) #18
  %.pre.i.i = load i64, ptr %2, align 8, !tbaa !113
  %45 = or i64 %.pre.i.i, 16
  br label %zstream_reset.exit.i.i

46:                                               ; preds = %38, %32
  store i64 4, ptr %9, align 8, !tbaa !51
  br label %zstream_reset.exit.i.i

zstream_reset.exit.i.i:                           ; preds = %46, %43
  %47 = phi i64 [ %45, %43 ], [ 17, %46 ]
  store i64 %47, ptr %2, align 8, !tbaa !113
  %48 = tail call i64 @crc32_z(i64 noundef 0, ptr noundef null, i64 noundef 0) #18
  %49 = getelementptr inbounds nuw i8, ptr %2, i64 192
  store i64 %48, ptr %49, align 8, !tbaa !118
  %50 = getelementptr inbounds nuw i8, ptr %2, i64 204
  store i32 0, ptr %50, align 4, !tbaa !124
  %51 = getelementptr inbounds nuw i8, ptr %2, i64 208
  store i64 0, ptr %51, align 8, !tbaa !156
  %52 = getelementptr inbounds nuw i8, ptr %2, i64 240
  %53 = load ptr, ptr %52, align 8, !tbaa !142
  %.not.i.i = icmp eq ptr %53, null
  br i1 %.not.i.i, label %gzfile_reader_rewind.exit, label %54

54:                                               ; preds = %zstream_reset.exit.i.i
  tail call void @rb_econv_close(ptr noundef nonnull %53) #18
  %55 = getelementptr inbounds nuw i8, ptr %2, i64 232
  %56 = load ptr, ptr %55, align 8, !tbaa !137
  %57 = getelementptr inbounds nuw i8, ptr %56, i64 8
  %58 = load ptr, ptr %57, align 8, !tbaa !139
  %59 = getelementptr inbounds nuw i8, ptr %2, i64 224
  %60 = load ptr, ptr %59, align 8, !tbaa !141
  %61 = getelementptr inbounds nuw i8, ptr %60, i64 8
  %62 = load ptr, ptr %61, align 8, !tbaa !139
  %63 = getelementptr inbounds nuw i8, ptr %2, i64 200
  %64 = load i32, ptr %63, align 8, !tbaa !138
  %65 = getelementptr inbounds nuw i8, ptr %2, i64 248
  %66 = load i64, ptr %65, align 8, !tbaa !143
  %67 = tail call ptr @rb_econv_open_opts(ptr noundef %58, ptr noundef %62, i32 noundef %64, i64 noundef %66) #18
  store ptr %67, ptr %52, align 8, !tbaa !142
  br label %gzfile_reader_rewind.exit

gzfile_reader_rewind.exit:                        ; preds = %zstream_reset.exit.i.i, %54
  ret i64 1
}